; Function Attrs: mustprogress nofree norecurse nosync nounwind willreturn memory(none) uwtable
define range(i32 0, 2) i32 @ff_fmt_is_forced_full_range(i32 noundef %0) local_unnamed_addr #8 {
  switch i32 %0, label %2 [
    i32 12, label %3
    i32 13, label %3
    i32 14, label %3
    i32 32, label %3
    i32 138, label %3
  ]

2:                                                ; preds = %1
  br label %3

3:                                                ; preds = %1, %1, %1, %1, %1, %2
  %.0 = phi i32 [ 0, %2 ], [ 1, %1 ], [ 1, %1 ], [ 1, %1 ], [ 1, %1 ], [ 1, %1 ]
  ret i32 %.0
}